target datalayout = "e-m:e-p270:32:32-p271:32:32-p272:64:64-i64:64-i128:128-f80:128-n8:16:32:64-S128"
target triple = "x86_64-unknown-linux-gnu"

%"class.QuantLib::FdmLinearOp" = type { ptr }
%"class.std::unique_ptr" = type { %"struct.std::__uniq_ptr_data" }
%"struct.std::__uniq_ptr_data" = type { %"class.std::__uniq_ptr_impl" }
%"class.std::__uniq_ptr_impl" = type { %"class.std::tuple" }
%"class.std::tuple" = type { %"struct.std::_Tuple_impl" }
%"struct.std::_Tuple_impl" = type { %"struct.std::_Head_base.1" }
%"struct.std::_Head_base.1" = type { ptr }
%"class.boost::detail::shared_count" = type { ptr }
%"class.QuantLib::Array" = type { %"class.std::unique_ptr", i64 }
%"class.QuantLib::FdmSquareRootFwdOp" = type { %"class.QuantLib::FdmLinearOpComposite", i64, double, double, double, i32, %"class.boost::shared_ptr", %"class.QuantLib::Array" }
%"class.QuantLib::FdmLinearOpComposite" = type { %"class.QuantLib::FdmLinearOp" }
%"class.boost::shared_ptr" = type { ptr, %"class.boost::detail::shared_count" }

; Function Attrs: mustprogress uwtable
define noundef double @_ZNK8QuantLib18FdmSquareRootFwdOp5zetapEm(ptr noundef nonnull align 8 dereferenceable(80) %this, i64 noundef %i) #4 align 2 {
entry:
  %this.addr = alloca ptr, align 8
  %i.addr = alloca i64, align 8
  store ptr %this, ptr %this.addr, align 8, !tbaa !3
  store i64 %i, ptr %i.addr, align 8, !tbaa !9
  %this1 = load ptr, ptr %this.addr, align 8
  %0 = load i64, ptr %i.addr, align 8, !tbaa !9
  %call = call noundef double @_ZNK8QuantLib18FdmSquareRootFwdOp1hEm(ptr noundef nonnull align 8 dereferenceable(80) %this1, i64 noundef %0)
  %1 = load i64, ptr %i.addr, align 8, !tbaa !9
  %sub = sub i64 %1, 1
  %call2 = call noundef double @_ZNK8QuantLib18FdmSquareRootFwdOp1hEm(ptr noundef nonnull align 8 dereferenceable(80) %this1, i64 noundef %sub)
  %2 = load i64, ptr %i.addr, align 8, !tbaa !9
  %call3 = call noundef double @_ZNK8QuantLib18FdmSquareRootFwdOp1hEm(ptr noundef nonnull align 8 dereferenceable(80) %this1, i64 noundef %2)
  %add = fadd double %call2, %call3
  %mul = fmul double %call, %add
  ret double %mul
}

; Function Attrs: mustprogress uwtable
define noundef double @_ZNK8QuantLib18FdmSquareRootFwdOp1hEm(ptr noundef nonnull align 8 dereferenceable(80) %this, i64 noundef %i) #4 align 2 {
entry:
  %this.addr = alloca ptr, align 8
  %i.addr = alloca i64, align 8
  store ptr %this, ptr %this.addr, align 8, !tbaa !3
  store i64 %i, ptr %i.addr, align 8, !tbaa !9
  %this1 = load ptr, ptr %this.addr, align 8
  %0 = load i64, ptr %i.addr, align 8, !tbaa !9
  %add = add i64 %0, 1
  %call = call noundef double @_ZNK8QuantLib18FdmSquareRootFwdOp1vEm(ptr noundef nonnull align 8 dereferenceable(80) %this1, i64 noundef %add)
  %1 = load i64, ptr %i.addr, align 8, !tbaa !9
  %call2 = call noundef double @_ZNK8QuantLib18FdmSquareRootFwdOp1vEm(ptr noundef nonnull align 8 dereferenceable(80) %this1, i64 noundef %1)
  %sub = fsub double %call, %call2
  ret double %sub
}

; Function Attrs: inlinehint mustprogress nounwind uwtable
define linkonce_odr noundef i64 @_ZNK8QuantLib5Array4sizeEv(ptr noundef nonnull align 8 dereferenceable(16) %this) #5 comdat align 2 {
entry:
  %this.addr = alloca ptr, align 8
  store ptr %this, ptr %this.addr, align 8, !tbaa !3
  %this1 = load ptr, ptr %this.addr, align 8
  %n_ = getelementptr inbounds nuw %"class.QuantLib::Array", ptr %this1, i32 0, i32 1
  %0 = load i64, ptr %n_, align 8, !tbaa !48
  ret i64 %0
}

; Function Attrs: mustprogress uwtable
define noundef double @_ZNK8QuantLib18FdmSquareRootFwdOp7f1PowerEv(ptr noundef nonnull align 8 dereferenceable(80) %this) #4 align 2 {
entry:
  %this.addr = alloca ptr, align 8
  %n = alloca i64, align 8
  %mu = alloca double, align 8
  %a = alloca double, align 8
  %gamma = alloca double, align 8
  %nu = alloca double, align 8
  store ptr %this, ptr %this.addr, align 8, !tbaa !3
  %this1 = load ptr, ptr %this.addr, align 8
  call void @llvm.lifetime.start.p0(i64 8, ptr %n) #3
  %v_ = getelementptr inbounds nuw %"class.QuantLib::FdmSquareRootFwdOp", ptr %this1, i32 0, i32 7
  %call = call noundef i64 @_ZNK8QuantLib5Array4sizeEv(ptr noundef nonnull align 8 dereferenceable(16) %v_)
  store i64 %call, ptr %n, align 8, !tbaa !9
  call void @llvm.lifetime.start.p0(i64 8, ptr %mu) #3
  %kappa_ = getelementptr inbounds nuw %"class.QuantLib::FdmSquareRootFwdOp", ptr %this1, i32 0, i32 2
  %0 = load double, ptr %kappa_, align 8, !tbaa !28
  %1 = load i64, ptr %n, align 8, !tbaa !9
  %call2 = call noundef double @_ZNK8QuantLib18FdmSquareRootFwdOp1vEm(ptr noundef nonnull align 8 dereferenceable(80) %this1, i64 noundef %1)
  %theta_ = getelementptr inbounds nuw %"class.QuantLib::FdmSquareRootFwdOp", ptr %this1, i32 0, i32 3
  %2 = load double, ptr %theta_, align 8, !tbaa !29
  %add = fadd double %call2, %2
  %mul = fmul double %0, %add
  store double %mul, ptr %mu, align 8, !tbaa !7
  call void @llvm.lifetime.start.p0(i64 8, ptr %a) #3
  %3 = load i64, ptr %n, align 8, !tbaa !9
  %call3 = call noundef double @_ZNK8QuantLib18FdmSquareRootFwdOp1hEm(ptr noundef nonnull align 8 dereferenceable(80) %this1, i64 noundef %3)
  %4 = load i64, ptr %n, align 8, !tbaa !9
  %sub = sub i64 %4, 1
  %call5 = call noundef double @_ZNK8QuantLib18FdmSquareRootFwdOp1hEm(ptr noundef nonnull align 8 dereferenceable(80) %this1, i64 noundef %sub)
  %5 = call double @llvm.fmuladd.f64(double 2.000000e+00, double %call3, double %call5)
  %6 = load i64, ptr %n, align 8, !tbaa !9
  %call6 = call noundef double @_ZNK8QuantLib18FdmSquareRootFwdOp5zetapEm(ptr noundef nonnull align 8 dereferenceable(80) %this1, i64 noundef %6)
  %div = fdiv double %5, %call6
  store double %div, ptr %a, align 8, !tbaa !7
  call void @llvm.lifetime.start.p0(i64 8, ptr %gamma) #3
  %sigma_ = getelementptr inbounds nuw %"class.QuantLib::FdmSquareRootFwdOp", ptr %this1, i32 0, i32 4
  %7 = load double, ptr %sigma_, align 8, !tbaa !30
  %sigma_7 = getelementptr inbounds nuw %"class.QuantLib::FdmSquareRootFwdOp", ptr %this1, i32 0, i32 4
  %8 = load double, ptr %sigma_7, align 8, !tbaa !30
  %mul8 = fmul double %7, %8
  %9 = load i64, ptr %n, align 8, !tbaa !9
  %call9 = call noundef double @_ZNK8QuantLib18FdmSquareRootFwdOp1vEm(ptr noundef nonnull align 8 dereferenceable(80) %this1, i64 noundef %9)
  %mul10 = fmul double %mul8, %call9
  %10 = load i64, ptr %n, align 8, !tbaa !9
  %call11 = call noundef double @_ZNK8QuantLib18FdmSquareRootFwdOp5zetapEm(ptr noundef nonnull align 8 dereferenceable(80) %this1, i64 noundef %10)
  %div12 = fdiv double %mul10, %call11
  %11 = load double, ptr %mu, align 8, !tbaa !7
  %12 = load i64, ptr %n, align 8, !tbaa !9
  %sub13 = sub i64 %12, 1
  %call14 = call noundef double @_ZNK8QuantLib18FdmSquareRootFwdOp1hEm(ptr noundef nonnull align 8 dereferenceable(80) %this1, i64 noundef %sub13)
  %mul15 = fmul double %11, %call14
  %13 = load i64, ptr %n, align 8, !tbaa !9
  %call16 = call noundef double @_ZNK8QuantLib18FdmSquareRootFwdOp5zetapEm(ptr noundef nonnull align 8 dereferenceable(80) %this1, i64 noundef %13)
  %div17 = fdiv double %mul15, %call16
  %add18 = fadd double %div12, %div17
  store double %add18, ptr %gamma, align 8, !tbaa !7
  call void @llvm.lifetime.start.p0(i64 8, ptr %nu) #3
  %14 = load double, ptr %a, align 8, !tbaa !7
  %15 = load i64, ptr %n, align 8, !tbaa !9
  %add19 = add i64 %15, 1
  %call20 = call noundef double @_ZNK8QuantLib18FdmSquareRootFwdOp1vEm(ptr noundef nonnull align 8 dereferenceable(80) %this1, i64 noundef %add19)
  %kappa_22 = getelementptr inbounds nuw %"class.QuantLib::FdmSquareRootFwdOp", ptr %this1, i32 0, i32 2
  %16 = load double, ptr %kappa_22, align 8, !tbaa !28
  %17 = load i64, ptr %n, align 8, !tbaa !9
  %add23 = add i64 %17, 1
  %call24 = call noundef double @_ZNK8QuantLib18FdmSquareRootFwdOp1vEm(ptr noundef nonnull align 8 dereferenceable(80) %this1, i64 noundef %add23)
  %mul25 = fmul double %16, %call24
  %sigma_26 = getelementptr inbounds nuw %"class.QuantLib::FdmSquareRootFwdOp", ptr %this1, i32 0, i32 4
  %18 = load double, ptr %sigma_26, align 8, !tbaa !30
  %sigma_27 = getelementptr inbounds nuw %"class.QuantLib::FdmSquareRootFwdOp", ptr %this1, i32 0, i32 4
  %19 = load double, ptr %sigma_27, align 8, !tbaa !30
  %mul28 = fmul double %18, %19
  %div29 = fdiv double %mul25, %mul28
  %mul30 = fmul double 2.000000e+00, %div29
  %20 = call double @llvm.fmuladd.f64(double %14, double %call20, double %mul30)
  store double %20, ptr %nu, align 8, !tbaa !7
  %21 = load double, ptr %gamma, align 8, !tbaa !7
  %22 = load double, ptr %nu, align 8, !tbaa !7
  %div31 = fdiv double %21, %22
  %23 = load i64, ptr %n, align 8, !tbaa !9
  %add32 = add i64 %23, 1
  %call33 = call noundef double @_ZNK8QuantLib18FdmSquareRootFwdOp1vEm(ptr noundef nonnull align 8 dereferenceable(80) %this1, i64 noundef %add32)
  %mul34 = fmul double %div31, %call33
  call void @llvm.lifetime.end.p0(i64 8, ptr %nu) #3
  call void @llvm.lifetime.end.p0(i64 8, ptr %gamma) #3
  call void @llvm.lifetime.end.p0(i64 8, ptr %a) #3
  call void @llvm.lifetime.end.p0(i64 8, ptr %mu) #3
  call void @llvm.lifetime.end.p0(i64 8, ptr %n) #3
  ret double %mul34
}