; Function Attrs: mustprogress uwtable
define noundef double @_ZNK8QuantLib18FdmSquareRootFwdOp7f1PowerEv(ptr nocapture noundef nonnull readonly align 8 dereferenceable(80) %this) local_unnamed_addr #3 align 2 {
entry:
  %n_.i = getelementptr inbounds nuw i8, ptr %this, i64 72
  %0 = load i64, ptr %n_.i, align 8, !tbaa !60
  %kappa_ = getelementptr inbounds nuw i8, ptr %this, i64 16
  %1 = load double, ptr %kappa_, align 8, !tbaa !24
  %call2 = tail call noundef double @_ZNK8QuantLib18FdmSquareRootFwdOp1vEm(ptr noundef nonnull align 8 dereferenceable(80) %this, i64 noundef %0)
  %theta_ = getelementptr inbounds nuw i8, ptr %this, i64 24
  %2 = load double, ptr %theta_, align 8, !tbaa !25
  %add = fadd double %call2, %2
  %mul = fmul double %1, %add
  %add.i = add i64 %0, 1
  %call.i = tail call noundef double @_ZNK8QuantLib18FdmSquareRootFwdOp1vEm(ptr noundef nonnull readonly align 8 dereferenceable(80) %this, i64 noundef %add.i)
  %call2.i = tail call noundef double @_ZNK8QuantLib18FdmSquareRootFwdOp1vEm(ptr noundef nonnull readonly align 8 dereferenceable(80) %this, i64 noundef %0)
  %sub.i = fsub double %call.i, %call2.i
  %sub = add i64 %0, -1
  %call.i12 = tail call noundef double @_ZNK8QuantLib18FdmSquareRootFwdOp1vEm(ptr noundef nonnull readonly align 8 dereferenceable(80) %this, i64 noundef %0)
  %call2.i13 = tail call noundef double @_ZNK8QuantLib18FdmSquareRootFwdOp1vEm(ptr noundef nonnull readonly align 8 dereferenceable(80) %this, i64 noundef %sub)
  %sub.i14 = fsub double %call.i12, %call2.i13
  %3 = tail call double @llvm.fmuladd.f64(double %sub.i, double 2.000000e+00, double %sub.i14)
  %call.i.i = tail call noundef double @_ZNK8QuantLib18FdmSquareRootFwdOp1vEm(ptr noundef nonnull readonly align 8 dereferenceable(80) %this, i64 noundef %add.i)
  %call2.i.i = tail call noundef double @_ZNK8QuantLib18FdmSquareRootFwdOp1vEm(ptr noundef nonnull readonly align 8 dereferenceable(80) %this, i64 noundef %0)
  %sub.i.i = fsub double %call.i.i, %call2.i.i
  %call.i4.i = tail call noundef double @_ZNK8QuantLib18FdmSquareRootFwdOp1vEm(ptr noundef nonnull readonly align 8 dereferenceable(80) %this, i64 noundef %0)
  %call2.i5.i = tail call noundef double @_ZNK8QuantLib18FdmSquareRootFwdOp1vEm(ptr noundef nonnull readonly align 8 dereferenceable(80) %this, i64 noundef %sub)
  %sub.i6.i = fsub double %call.i4.i, %call2.i5.i
  %call.i8.i = tail call noundef double @_ZNK8QuantLib18FdmSquareRootFwdOp1vEm(ptr noundef nonnull readonly align 8 dereferenceable(80) %this, i64 noundef %add.i)
  %call2.i9.i = tail call noundef double @_ZNK8QuantLib18FdmSquareRootFwdOp1vEm(ptr noundef nonnull readonly align 8 dereferenceable(80) %this, i64 noundef %0)
  %sub.i10.i = fsub double %call.i8.i, %call2.i9.i
  %add.i16 = fadd double %sub.i6.i, %sub.i10.i
  %mul.i = fmul double %sub.i.i, %add.i16
  %div = fdiv double %3, %mul.i
  %sigma_ = getelementptr inbounds nuw i8, ptr %this, i64 32
  %4 = load double, ptr %sigma_, align 8, !tbaa !26
  %mul8 = fmul double %4, %4
  %call9 = tail call noundef double @_ZNK8QuantLib18FdmSquareRootFwdOp1vEm(ptr noundef nonnull align 8 dereferenceable(80) %this, i64 noundef %0)
  %mul10 = fmul double %mul8, %call9
  %call.i.i18 = tail call noundef double @_ZNK8QuantLib18FdmSquareRootFwdOp1vEm(ptr noundef nonnull readonly align 8 dereferenceable(80) %this, i64 noundef %add.i)
  %call2.i.i19 = tail call noundef double @_ZNK8QuantLib18FdmSquareRootFwdOp1vEm(ptr noundef nonnull readonly align 8 dereferenceable(80) %this, i64 noundef %0)
  %sub.i.i20 = fsub double %call.i.i18, %call2.i.i19
  %call.i4.i22 = tail call noundef double @_ZNK8QuantLib18FdmSquareRootFwdOp1vEm(ptr noundef nonnull readonly align 8 dereferenceable(80) %this, i64 noundef %0)
  %call2.i5.i23 = tail call noundef double @_ZNK8QuantLib18FdmSquareRootFwdOp1vEm(ptr noundef nonnull readonly align 8 dereferenceable(80) %this, i64 noundef %sub)
  %sub.i6.i24 = fsub double %call.i4.i22, %call2.i5.i23
  %call.i8.i25 = tail call noundef double @_ZNK8QuantLib18FdmSquareRootFwdOp1vEm(ptr noundef nonnull readonly align 8 dereferenceable(80) %this, i64 noundef %add.i)
  %call2.i9.i26 = tail call noundef double @_ZNK8QuantLib18FdmSquareRootFwdOp1vEm(ptr noundef nonnull readonly align 8 dereferenceable(80) %this, i64 noundef %0)
  %sub.i10.i27 = fsub double %call.i8.i25, %call2.i9.i26
  %add.i28 = fadd double %sub.i6.i24, %sub.i10.i27
  %mul.i29 = fmul double %sub.i.i20, %add.i28
  %div12 = fdiv double %mul10, %mul.i29
  %call.i31 = tail call noundef double @_ZNK8QuantLib18FdmSquareRootFwdOp1vEm(ptr noundef nonnull readonly align 8 dereferenceable(80) %this, i64 noundef %0)
  %call2.i32 = tail call noundef double @_ZNK8QuantLib18FdmSquareRootFwdOp1vEm(ptr noundef nonnull readonly align 8 dereferenceable(80) %this, i64 noundef %sub)
  %sub.i33 = fsub double %call.i31, %call2.i32
  %mul15 = fmul double %mul, %sub.i33
  %call.i.i35 = tail call noundef double @_ZNK8QuantLib18FdmSquareRootFwdOp1vEm(ptr noundef nonnull readonly align 8 dereferenceable(80) %this, i64 noundef %add.i)
  %call2.i.i36 = tail call noundef double @_ZNK8QuantLib18FdmSquareRootFwdOp1vEm(ptr noundef nonnull readonly align 8 dereferenceable(80) %this, i64 noundef %0)
  %sub.i.i37 = fsub double %call.i.i35, %call2.i.i36
  %call.i4.i39 = tail call noundef double @_ZNK8QuantLib18FdmSquareRootFwdOp1vEm(ptr noundef nonnull readonly align 8 dereferenceable(80) %this, i64 noundef %0)
  %call2.i5.i40 = tail call noundef double @_ZNK8QuantLib18FdmSquareRootFwdOp1vEm(ptr noundef nonnull readonly align 8 dereferenceable(80) %this, i64 noundef %sub)
  %sub.i6.i41 = fsub double %call.i4.i39, %call2.i5.i40
  %call.i8.i42 = tail call noundef double @_ZNK8QuantLib18FdmSquareRootFwdOp1vEm(ptr noundef nonnull readonly align 8 dereferenceable(80) %this, i64 noundef %add.i)
  %call2.i9.i43 = tail call noundef double @_ZNK8QuantLib18FdmSquareRootFwdOp1vEm(ptr noundef nonnull readonly align 8 dereferenceable(80) %this, i64 noundef %0)
  %sub.i10.i44 = fsub double %call.i8.i42, %call2.i9.i43
  %add.i45 = fadd double %sub.i6.i41, %sub.i10.i44
  %mul.i46 = fmul double %sub.i.i37, %add.i45
  %div17 = fdiv double %mul15, %mul.i46
  %add18 = fadd double %div12, %div17
  %call20 = tail call noundef double @_ZNK8QuantLib18FdmSquareRootFwdOp1vEm(ptr noundef nonnull align 8 dereferenceable(80) %this, i64 noundef %add.i)
  %5 = load double, ptr %kappa_, align 8, !tbaa !24
  %call24 = tail call noundef double @_ZNK8QuantLib18FdmSquareRootFwdOp1vEm(ptr noundef nonnull align 8 dereferenceable(80) %this, i64 noundef %add.i)
  %mul25 = fmul double %5, %call24
  %6 = load double, ptr %sigma_, align 8, !tbaa !26
  %mul28 = fmul double %6, %6
  %div29 = fdiv double %mul25, %mul28
  %mul30 = fmul double %div29, 2.000000e+00
  %7 = tail call double @llvm.fmuladd.f64(double %div, double %call20, double %mul30)
  %div31 = fdiv double %add18, %7
  %call33 = tail call noundef double @_ZNK8QuantLib18FdmSquareRootFwdOp1vEm(ptr noundef nonnull align 8 dereferenceable(80) %this, i64 noundef %add.i)
  %mul34 = fmul double %call33, %div31
  ret double %mul34
}